; Function Attrs: nounwind uwtable
define void @Gia_ManCompareValues(ptr noundef initializes((816, 820)) %0, ptr noundef readonly captures(none) %1, ptr noundef readonly captures(none) %2, ptr noundef %3) local_unnamed_addr #0 {
  %5 = getelementptr i8, ptr %1, i64 4
  %.val46 = load i32, ptr %5, align 4, !tbaa !50
  %6 = getelementptr i8, ptr %0, i64 64
  %.val47 = load ptr, ptr %6, align 8, !tbaa !22
  %7 = getelementptr i8, ptr %.val47, i64 4
  %.val47.val = load i32, ptr %7, align 4, !tbaa !41
  %8 = sdiv i32 %.val46, %.val47.val
  %9 = tail call i32 @Gia_ManSimulateWordsInit(ptr noundef %0, ptr noundef %1)
  %10 = getelementptr i8, ptr %0, i64 72
  %.val50 = load ptr, ptr %10, align 8, !tbaa !45
  %11 = getelementptr i8, ptr %.val50, i64 8
  %.val50.val = load ptr, ptr %11, align 8, !tbaa !44
  %12 = load i32, ptr %.val50.val, align 4, !tbaa !19
  %13 = getelementptr i8, ptr %0, i64 816
  %.val44 = load i32, ptr %13, align 8, !tbaa !57
  %14 = getelementptr i8, ptr %0, i64 832
  %.val45 = load ptr, ptr %14, align 8, !tbaa !56
  %15 = getelementptr i8, ptr %.val45, i64 8
  %.val45.val = load ptr, ptr %15, align 8, !tbaa !13
  %16 = mul nsw i32 %.val44, %12
  %17 = sext i32 %16 to i64
  %18 = getelementptr inbounds i64, ptr %.val45.val, i64 %17
  %19 = getelementptr i8, ptr %2, i64 4
  %.val42 = load i32, ptr %19, align 4, !tbaa !41
  %20 = icmp sgt i32 %.val42, 0
  br i1 %20, label %.lr.ph, label %Vec_IntSum.exit.thread

.lr.ph:                                           ; preds = %4
  %21 = getelementptr i8, ptr %2, i64 8
  %.val48 = load ptr, ptr %21, align 8, !tbaa !44
  %wide.trip.count = zext nneg i32 %.val42 to i64
  br label %22

22:                                               ; preds = %.lr.ph, %22
  %indvars.iv = phi i64 [ 0, %.lr.ph ], [ %indvars.iv.next, %22 ]
  %.03672 = phi i32 [ 0, %.lr.ph ], [ %spec.select, %22 ]
  %23 = getelementptr inbounds nuw i32, ptr %.val48, i64 %indvars.iv
  %24 = load i32, ptr %23, align 4, !tbaa !19
  %25 = lshr i64 %indvars.iv, 6
  %26 = and i64 %25, 67108863
  %27 = getelementptr inbounds nuw i64, ptr %18, i64 %26
  %28 = load i64, ptr %27, align 8, !tbaa !16
  %29 = and i64 %indvars.iv, 63
  %30 = lshr i64 %28, %29
  %31 = trunc i64 %30 to i32
  %32 = and i32 %31, 1
  %33 = icmp eq i32 %32, %24
  %34 = zext i1 %33 to i32
  %spec.select = add nuw nsw i32 %.03672, %34
  %indvars.iv.next = add nuw nsw i64 %indvars.iv, 1
  %exitcond.not = icmp eq i64 %indvars.iv.next, %wide.trip.count
  br i1 %exitcond.not, label %.lr.ph.i, label %22, !llvm.loop !89

.lr.ph.i:                                         ; preds = %22
  %35 = getelementptr inbounds nuw i8, ptr %2, i64 8
  %36 = load ptr, ptr %35, align 8, !tbaa !44
  %wide.trip.count.i = zext nneg i32 %.val42 to i64
  br label %37

37:                                               ; preds = %37, %.lr.ph.i
  %indvars.iv.i = phi i64 [ 0, %.lr.ph.i ], [ %indvars.iv.next.i, %37 ]
  %.08.i = phi i32 [ 0, %.lr.ph.i ], [ %40, %37 ]
  %38 = getelementptr inbounds nuw i32, ptr %36, i64 %indvars.iv.i
  %39 = load i32, ptr %38, align 4, !tbaa !19
  %40 = add nsw i32 %39, %.08.i
  %indvars.iv.next.i = add nuw nsw i64 %indvars.iv.i, 1
  %exitcond.not.i = icmp eq i64 %indvars.iv.next.i, %wide.trip.count.i
  br i1 %exitcond.not.i, label %Vec_IntSum.exit, label %37, !llvm.loop !88

Vec_IntSum.exit:                                  ; preds = %37
  %41 = shl nsw i32 %8, 5
  %42 = icmp sgt i32 %40, %41
  br i1 %42, label %.lr.ph.i52, label %.lr.ph.i60

Vec_IntSum.exit.thread:                           ; preds = %4
  %43 = icmp slt i32 %8, 0
  br i1 %43, label %Vec_IntSum.exit58, label %Vec_IntSum.exit66

.lr.ph.i52:                                       ; preds = %Vec_IntSum.exit, %.lr.ph.i52
  %indvars.iv.i54 = phi i64 [ %indvars.iv.next.i56, %.lr.ph.i52 ], [ 0, %Vec_IntSum.exit ]
  %.08.i55 = phi i32 [ %46, %.lr.ph.i52 ], [ 0, %Vec_IntSum.exit ]
  %44 = getelementptr inbounds nuw i32, ptr %36, i64 %indvars.iv.i54
  %45 = load i32, ptr %44, align 4, !tbaa !19
  %46 = add nsw i32 %45, %.08.i55
  %indvars.iv.next.i56 = add nuw nsw i64 %indvars.iv.i54, 1
  %exitcond.not.i57 = icmp eq i64 %indvars.iv.next.i56, %wide.trip.count.i
  br i1 %exitcond.not.i57, label %Vec_IntSum.exit58, label %.lr.ph.i52, !llvm.loop !88

.lr.ph.i60:                                       ; preds = %Vec_IntSum.exit, %.lr.ph.i60
  %indvars.iv.i62 = phi i64 [ %indvars.iv.next.i64, %.lr.ph.i60 ], [ 0, %Vec_IntSum.exit ]
  %.08.i63 = phi i32 [ %49, %.lr.ph.i60 ], [ 0, %Vec_IntSum.exit ]
  %47 = getelementptr inbounds nuw i32, ptr %36, i64 %indvars.iv.i62
  %48 = load i32, ptr %47, align 4, !tbaa !19
  %49 = add nsw i32 %48, %.08.i63
  %indvars.iv.next.i64 = add nuw nsw i64 %indvars.iv.i62, 1
  %exitcond.not.i65 = icmp eq i64 %indvars.iv.next.i64, %wide.trip.count.i
  br i1 %exitcond.not.i65, label %Vec_IntSum.exit66, label %.lr.ph.i60, !llvm.loop !88

Vec_IntSum.exit66:                                ; preds = %.lr.ph.i60, %Vec_IntSum.exit.thread
  %.036.lcssa79 = phi i32 [ 0, %Vec_IntSum.exit.thread ], [ %spec.select, %.lr.ph.i60 ]
  %.0.lcssa.i59 = phi i32 [ 0, %Vec_IntSum.exit.thread ], [ %49, %.lr.ph.i60 ]
  %50 = shl nsw i32 %8, 6
  %51 = sub nsw i32 %50, %.0.lcssa.i59
  br label %Vec_IntSum.exit58

Vec_IntSum.exit58:                                ; preds = %.lr.ph.i52, %Vec_IntSum.exit.thread, %Vec_IntSum.exit66
  %.036.lcssa80 = phi i32 [ %.036.lcssa79, %Vec_IntSum.exit66 ], [ 0, %Vec_IntSum.exit.thread ], [ %spec.select, %.lr.ph.i52 ]
  %52 = phi i32 [ %51, %Vec_IntSum.exit66 ], [ 0, %Vec_IntSum.exit.thread ], [ %46, %.lr.ph.i52 ]
  %53 = sub nsw i32 %.val42, %.036.lcssa80
  %54 = uitofp nneg i32 %.036.lcssa80 to double
  %55 = fmul double %54, 1.000000e+02
  %56 = sitofp i32 %.val42 to double
  %57 = fdiv double %55, %56
  %58 = sitofp i32 %52 to double
  %59 = fmul double %58, 1.000000e+02
  %60 = fdiv double %59, %56
  %61 = tail call i32 (ptr, ...) @printf(ptr noundef nonnull dereferenceable(1) @.str.38, i32 noundef %.val42, i32 noundef %53, i32 noundef %.036.lcssa80, double noundef %57, i32 noundef %52, double noundef %60)
  %62 = icmp eq ptr %3, null
  br i1 %62, label %65, label %63

63:                                               ; preds = %Vec_IntSum.exit58
  %.val = load i32, ptr %19, align 4, !tbaa !41
  tail call void @Gia_ManSimLogStats(ptr noundef %0, ptr noundef nonnull %3, i32 noundef %.val, i32 noundef %.036.lcssa80, i32 noundef %52)
  %64 = tail call i32 (ptr, ...) @printf(ptr noundef nonnull dereferenceable(1) @.str.39, ptr noundef nonnull %3)
  br label %65

65:                                               ; preds = %Vec_IntSum.exit58, %63
  ret void
}